; Function Attrs: nounwind uwtable
define noalias noundef nonnull ptr @l___private_Lean_Meta_LazyDiscrTree_0__Lean_Meta_LazyDiscrTree_MatchClone_elimLooseBVarsByBeta___lambda__1(ptr noundef %0, ptr readnone captures(none) %1, ptr readnone captures(none) %2, ptr noundef %3) local_unnamed_addr #1 {
  %5 = tail call zeroext i8 @l_Lean_Expr_hasLooseBVars(ptr noundef %0) #6
  %6 = icmp eq i8 %5, 0
  br i1 %6, label %7, label %16

7:                                                ; preds = %4
  tail call void @lean_inc_heartbeat() #6
  %8 = tail call noalias ptr @mi_malloc_small(i64 noundef 16) #6
  %9 = icmp eq ptr %8, null
  br i1 %9, label %10, label %lean_alloc_ctor.exit

10:                                               ; preds = %7
  tail call void @lean_internal_panic_out_of_memory() #7
  unreachable

lean_alloc_ctor.exit:                             ; preds = %7
  %11 = getelementptr inbounds nuw i8, ptr %8, i64 4
  store i32 1, ptr %8, align 4, !tbaa !8
  store i32 65552, ptr %11, align 4
  %12 = getelementptr inbounds nuw i8, ptr %8, i64 8
  store ptr %0, ptr %12, align 8, !tbaa !4
  tail call void @lean_inc_heartbeat() #6
  %13 = tail call noalias ptr @mi_malloc_small(i64 noundef 24) #6
  %14 = icmp eq ptr %13, null
  br i1 %14, label %15, label %lean_alloc_ctor.exit26

15:                                               ; preds = %lean_alloc_ctor.exit
  tail call void @lean_internal_panic_out_of_memory() #7
  unreachable

16:                                               ; preds = %4
  %17 = tail call zeroext i8 @l_Lean_Expr_isHeadBetaTarget(ptr noundef %0, i8 noundef zeroext 0) #6
  %18 = icmp eq i8 %17, 0
  br i1 %18, label %19, label %33

19:                                               ; preds = %16
  %20 = ptrtoint ptr %0 to i64
  %21 = and i64 %20, 1
  %.not = icmp eq i64 %21, 0
  br i1 %.not, label %22, label %lean_dec.exit

22:                                               ; preds = %19
  %23 = load i32, ptr %0, align 4, !tbaa !8
  %24 = icmp sgt i32 %23, 1
  br i1 %24, label %25, label %27, !prof !11

25:                                               ; preds = %22
  %26 = add nsw i32 %23, -1
  store i32 %26, ptr %0, align 4, !tbaa !8
  br label %lean_dec.exit

27:                                               ; preds = %22
  %.not.i = icmp eq i32 %23, 0
  br i1 %.not.i, label %lean_dec.exit, label %28

28:                                               ; preds = %27
  tail call void @lean_dec_ref_cold(ptr noundef nonnull %0) #6
  br label %lean_dec.exit

lean_dec.exit:                                    ; preds = %28, %27, %25, %19
  %29 = load ptr, ptr @l___private_Lean_Meta_LazyDiscrTree_0__Lean_Meta_LazyDiscrTree_MatchClone_elimLooseBVarsByBeta___lambda__1___closed__1, align 8, !tbaa !4
  tail call void @lean_inc_heartbeat() #6
  %30 = tail call noalias ptr @mi_malloc_small(i64 noundef 24) #6
  %31 = icmp eq ptr %30, null
  br i1 %31, label %32, label %lean_alloc_ctor.exit26

32:                                               ; preds = %lean_dec.exit
  tail call void @lean_internal_panic_out_of_memory() #7
  unreachable

33:                                               ; preds = %16
  %34 = tail call ptr @l_Lean_Expr_headBeta(ptr noundef %0) #6
  tail call void @lean_inc_heartbeat() #6
  %35 = tail call noalias ptr @mi_malloc_small(i64 noundef 16) #6
  %36 = icmp eq ptr %35, null
  br i1 %36, label %37, label %lean_alloc_ctor.exit28

37:                                               ; preds = %33
  tail call void @lean_internal_panic_out_of_memory() #7
  unreachable

lean_alloc_ctor.exit28:                           ; preds = %33
  %38 = getelementptr inbounds nuw i8, ptr %35, i64 4
  store i32 1, ptr %35, align 4, !tbaa !8
  store i32 16842768, ptr %38, align 4
  %39 = getelementptr inbounds nuw i8, ptr %35, i64 8
  store ptr %34, ptr %39, align 8, !tbaa !4
  tail call void @lean_inc_heartbeat() #6
  %40 = tail call noalias ptr @mi_malloc_small(i64 noundef 24) #6
  %41 = icmp eq ptr %40, null
  br i1 %41, label %42, label %lean_alloc_ctor.exit26

42:                                               ; preds = %lean_alloc_ctor.exit28
  tail call void @lean_internal_panic_out_of_memory() #7
  unreachable

lean_alloc_ctor.exit26:                           ; preds = %lean_alloc_ctor.exit28, %lean_dec.exit, %lean_alloc_ctor.exit
  %.sink35 = phi ptr [ %13, %lean_alloc_ctor.exit ], [ %30, %lean_dec.exit ], [ %40, %lean_alloc_ctor.exit28 ]
  %.sink = phi ptr [ %8, %lean_alloc_ctor.exit ], [ %29, %lean_dec.exit ], [ %35, %lean_alloc_ctor.exit28 ]
  %43 = getelementptr inbounds nuw i8, ptr %.sink35, i64 4
  store i32 1, ptr %.sink35, align 4, !tbaa !8
  store i32 131096, ptr %43, align 4
  %44 = getelementptr inbounds nuw i8, ptr %.sink35, i64 8
  store ptr %.sink, ptr %44, align 8, !tbaa !4
  %45 = getelementptr inbounds nuw i8, ptr %.sink35, i64 16
  store ptr %3, ptr %45, align 8, !tbaa !4
  ret ptr %.sink35
}